target datalayout = "e-m:e-p270:32:32-p271:32:32-p272:64:64-i64:64-i128:128-f80:128-n8:16:32:64-S128"
target triple = "x86_64-pc-linux-gnu"

%struct.ObjectAddress = type { i32, i32, i32 }

; Function Attrs: nounwind uwtable
define dso_local void @recordDependencyOnOwner(i32 noundef %0, i32 noundef %1, i32 noundef %2) #0 {
  %4 = alloca i32, align 4
  %5 = alloca i32, align 4
  %6 = alloca i32, align 4
  %7 = alloca %struct.ObjectAddress, align 4
  %8 = alloca %struct.ObjectAddress, align 4
  store i32 %0, ptr %4, align 4
  store i32 %1, ptr %5, align 4
  store i32 %2, ptr %6, align 4
  call void @llvm.lifetime.start.p0(i64 12, ptr %7) #7
  call void @llvm.lifetime.start.p0(i64 12, ptr %8) #7
  %9 = load i32, ptr %4, align 4
  %10 = getelementptr inbounds nuw %struct.ObjectAddress, ptr %7, i32 0, i32 0
  store i32 %9, ptr %10, align 4
  %11 = load i32, ptr %5, align 4
  %12 = getelementptr inbounds nuw %struct.ObjectAddress, ptr %7, i32 0, i32 1
  store i32 %11, ptr %12, align 4
  %13 = getelementptr inbounds nuw %struct.ObjectAddress, ptr %7, i32 0, i32 2
  store i32 0, ptr %13, align 4
  %14 = getelementptr inbounds nuw %struct.ObjectAddress, ptr %8, i32 0, i32 0
  store i32 1260, ptr %14, align 4
  %15 = load i32, ptr %6, align 4
  %16 = getelementptr inbounds nuw %struct.ObjectAddress, ptr %8, i32 0, i32 1
  store i32 %15, ptr %16, align 4
  %17 = getelementptr inbounds nuw %struct.ObjectAddress, ptr %8, i32 0, i32 2
  store i32 0, ptr %17, align 4
  call void @recordSharedDependencyOn(ptr noundef %7, ptr noundef %8, i32 noundef 111)
  call void @llvm.lifetime.end.p0(i64 12, ptr %8) #7
  call void @llvm.lifetime.end.p0(i64 12, ptr %7) #7
  ret void
}